; Function Attrs: nofree nounwind memory(write, argmem: readwrite, inaccessiblemem: readwrite) uwtable
define range(i32 -32, 1) i32 @pmix_bfrops_base_copy_nspace(ptr noundef writeonly captures(none) %0, ptr noundef readonly captures(address_is_null) %1, i16 noundef zeroext %2) local_unnamed_addr #9 {
  %calloc.i = tail call dereferenceable_or_null(256) ptr @calloc(i64 1, i64 256)
  %4 = icmp eq ptr %calloc.i, null
  br i1 %4, label %pmix_bfrops_base_tma_copy_nspace.exit, label %5, !prof !43

5:                                                ; preds = %3
  %.not.i.i = icmp eq ptr %1, null
  br i1 %.not.i.i, label %pmix_bfrops_base_tma_load_nspace.exit.i, label %.preheader.i.i

.preheader.i.i:                                   ; preds = %5, %8
  %.012.i.i.i = phi i64 [ %9, %8 ], [ 0, %5 ]
  %.0811.i.i.i = phi ptr [ %11, %8 ], [ %calloc.i, %5 ]
  %.0910.i.i.i = phi ptr [ %10, %8 ], [ %1, %5 ]
  %6 = load i8, ptr %.0910.i.i.i, align 1, !tbaa !48
  store i8 %6, ptr %.0811.i.i.i, align 1, !tbaa !48
  %7 = icmp eq i8 %6, 0
  br i1 %7, label %pmix_strncpy.exit.i.i, label %8

8:                                                ; preds = %.preheader.i.i
  %9 = add nuw nsw i64 %.012.i.i.i, 1
  %10 = getelementptr inbounds nuw i8, ptr %.0910.i.i.i, i64 1
  %11 = getelementptr inbounds nuw i8, ptr %.0811.i.i.i, i64 1
  %exitcond.not.i.i.i = icmp eq i64 %9, 255
  br i1 %exitcond.not.i.i.i, label %pmix_strncpy.exit.i.i, label %.preheader.i.i, !llvm.loop !49

pmix_strncpy.exit.i.i:                            ; preds = %8, %.preheader.i.i
  %.08.lcssa.i.i.i = phi ptr [ %.0811.i.i.i, %.preheader.i.i ], [ %11, %8 ]
  store i8 0, ptr %.08.lcssa.i.i.i, align 1, !tbaa !48
  br label %pmix_bfrops_base_tma_load_nspace.exit.i

pmix_bfrops_base_tma_load_nspace.exit.i:          ; preds = %pmix_strncpy.exit.i.i, %5
  store ptr %calloc.i, ptr %0, align 8, !tbaa !40
  br label %pmix_bfrops_base_tma_copy_nspace.exit

pmix_bfrops_base_tma_copy_nspace.exit:            ; preds = %3, %pmix_bfrops_base_tma_load_nspace.exit.i
  %.0.i = phi i32 [ 0, %pmix_bfrops_base_tma_load_nspace.exit.i ], [ -32, %3 ]
  ret i32 %.0.i
}